target datalayout = "e-m:e-p270:32:32-p271:32:32-p272:64:64-i64:64-i128:128-f80:128-n8:16:32:64-S128"
target triple = "x86_64-pc-linux-gnu"

%struct.FunctionCallInfoBaseData = type { ptr, ptr, ptr, i32, i8, i16, [0 x %struct.NullableDatum] }
%struct.NullableDatum = type { i64, i8 }
%struct.FmgrInfo = type { ptr, i32, i16, i8, i8, i8, ptr, ptr, ptr }
%struct.FuncCallContext = type { i64, i64, ptr, ptr, ptr, ptr }
%struct.generate_series_fctx = type { i32, i32, i32 }
%struct.ReturnSetInfo = type { i32, ptr, ptr, i32, i32, i32, ptr, ptr }

@.str.2 = private unnamed_addr constant [6 x i8] c"int.c\00", align 1
@.str.9 = private unnamed_addr constant [28 x i8] c"step size cannot equal zero\00", align 1
@__func__.generate_series_step_int4 = private unnamed_addr constant [26 x i8] c"generate_series_step_int4\00", align 1
@CurrentMemoryContext = external global ptr, align 8

; Function Attrs: inlinehint nounwind uwtable
define internal i64 @Int32GetDatum(i32 noundef %0) #2 {
  %2 = alloca i32, align 4
  store i32 %0, ptr %2, align 4
  %3 = load i32, ptr %2, align 4
  %4 = sext i32 %3 to i64
  ret i64 %4
}

; Function Attrs: inlinehint nounwind uwtable
define internal zeroext i1 @pg_add_s32_overflow(i32 noundef %0, i32 noundef %1, ptr noundef %2) #2 {
  %4 = alloca i32, align 4
  %5 = alloca i32, align 4
  %6 = alloca ptr, align 8
  store i32 %0, ptr %4, align 4
  store i32 %1, ptr %5, align 4
  store ptr %2, ptr %6, align 8
  %7 = load i32, ptr %4, align 4
  %8 = load i32, ptr %5, align 4
  %9 = load ptr, ptr %6, align 8
  %10 = call { i32, i1 } @llvm.sadd.with.overflow.i32(i32 %7, i32 %8)
  %11 = extractvalue { i32, i1 } %10, 1
  %12 = extractvalue { i32, i1 } %10, 0
  store i32 %12, ptr %9, align 4
  ret i1 %11
}

; Function Attrs: inlinehint nounwind uwtable
define internal ptr @MemoryContextSwitchTo(ptr noundef %0) #2 {
  %2 = alloca ptr, align 8
  %3 = alloca ptr, align 8
  store ptr %0, ptr %2, align 8
  call void @llvm.lifetime.start.p0(i64 8, ptr %3) #10
  %4 = load ptr, ptr @CurrentMemoryContext, align 8
  store ptr %4, ptr %3, align 8
  %5 = load ptr, ptr %2, align 8
  store ptr %5, ptr @CurrentMemoryContext, align 8
  %6 = load ptr, ptr %3, align 8
  call void @llvm.lifetime.end.p0(i64 8, ptr %3) #10
  ret ptr %6
}

; Function Attrs: inlinehint nounwind uwtable
define internal i32 @DatumGetInt32(i64 noundef %0) #2 {
  %2 = alloca i64, align 8
  store i64 %0, ptr %2, align 8
  %3 = load i64, ptr %2, align 8
  %4 = trunc i64 %3 to i32
  ret i32 %4
}

; Function Attrs: nounwind uwtable
define dso_local i64 @generate_series_step_int4(ptr noundef %0) #0 {
  %2 = alloca i64, align 8
  %3 = alloca ptr, align 8
  %4 = alloca ptr, align 8
  %5 = alloca ptr, align 8
  %6 = alloca i32, align 4
  %7 = alloca ptr, align 8
  %8 = alloca i32, align 4
  %9 = alloca i32, align 4
  %10 = alloca i32, align 4
  %11 = alloca ptr, align 8
  %12 = alloca i32, align 4
  %13 = alloca ptr, align 8
  store ptr %0, ptr %3, align 8
  call void @llvm.lifetime.start.p0(i64 8, ptr %4) #10
  call void @llvm.lifetime.start.p0(i64 8, ptr %5) #10
  call void @llvm.lifetime.start.p0(i64 4, ptr %6) #10
  call void @llvm.lifetime.start.p0(i64 8, ptr %7) #10
  %14 = load ptr, ptr %3, align 8
  %15 = getelementptr inbounds nuw %struct.FunctionCallInfoBaseData, ptr %14, i32 0, i32 0
  %16 = load ptr, ptr %15, align 8
  %17 = getelementptr inbounds nuw %struct.FmgrInfo, ptr %16, i32 0, i32 6
  %18 = load ptr, ptr %17, align 8
  %19 = icmp eq ptr %18, null
  br i1 %19, label %20, label %82

20:                                               ; preds = %1
  call void @llvm.lifetime.start.p0(i64 4, ptr %8) #10
  %21 = load ptr, ptr %3, align 8
  %22 = getelementptr inbounds nuw %struct.FunctionCallInfoBaseData, ptr %21, i32 0, i32 6
  %23 = getelementptr inbounds [0 x %struct.NullableDatum], ptr %22, i64 0, i64 0
  %24 = getelementptr inbounds nuw %struct.NullableDatum, ptr %23, i32 0, i32 0
  %25 = load i64, ptr %24, align 8
  %26 = call i32 @DatumGetInt32(i64 noundef %25)
  store i32 %26, ptr %8, align 4
  call void @llvm.lifetime.start.p0(i64 4, ptr %9) #10
  %27 = load ptr, ptr %3, align 8
  %28 = getelementptr inbounds nuw %struct.FunctionCallInfoBaseData, ptr %27, i32 0, i32 6
  %29 = getelementptr inbounds [0 x %struct.NullableDatum], ptr %28, i64 0, i64 1
  %30 = getelementptr inbounds nuw %struct.NullableDatum, ptr %29, i32 0, i32 0
  %31 = load i64, ptr %30, align 8
  %32 = call i32 @DatumGetInt32(i64 noundef %31)
  store i32 %32, ptr %9, align 4
  call void @llvm.lifetime.start.p0(i64 4, ptr %10) #10
  store i32 1, ptr %10, align 4
  %33 = load ptr, ptr %3, align 8
  %34 = getelementptr inbounds nuw %struct.FunctionCallInfoBaseData, ptr %33, i32 0, i32 5
  %35 = load i16, ptr %34, align 2
  %36 = sext i16 %35 to i32
  %37 = icmp eq i32 %36, 3
  br i1 %37, label %38, label %45

38:                                               ; preds = %20
  %39 = load ptr, ptr %3, align 8
  %40 = getelementptr inbounds nuw %struct.FunctionCallInfoBaseData, ptr %39, i32 0, i32 6
  %41 = getelementptr inbounds [0 x %struct.NullableDatum], ptr %40, i64 0, i64 2
  %42 = getelementptr inbounds nuw %struct.NullableDatum, ptr %41, i32 0, i32 0
  %43 = load i64, ptr %42, align 8
  %44 = call i32 @DatumGetInt32(i64 noundef %43)
  store i32 %44, ptr %10, align 4
  br label %45

45:                                               ; preds = %38, %20
  %46 = load i32, ptr %10, align 4
  %47 = icmp eq i32 %46, 0
  br i1 %47, label %48, label %60

48:                                               ; preds = %45
  br label %49

49:                                               ; preds = %48
  br i1 true, label %50, label %52

50:                                               ; preds = %49
  %51 = call zeroext i1 @errstart_cold(i32 noundef 21, ptr noundef null) #12
  br i1 %51, label %54, label %57

52:                                               ; preds = %49
  %53 = call zeroext i1 @errstart(i32 noundef 21, ptr noundef null)
  br i1 %53, label %54, label %57

54:                                               ; preds = %52, %50
  %55 = call i32 @errcode(i32 noundef 50856066)
  %56 = call i32 (ptr, ...) @errmsg(ptr noundef @.str.9)
  call void @errfinish(ptr noundef @.str.2, i32 noundef 1529, ptr noundef @__func__.generate_series_step_int4)
  br label %57

57:                                               ; preds = %54, %52, %50
  unreachable

58:                                               ; No predecessors!
  br label %59

59:                                               ; preds = %58
  br label %60

60:                                               ; preds = %59, %45
  %61 = load ptr, ptr %3, align 8
  %62 = call ptr @init_MultiFuncCall(ptr noundef %61)
  store ptr %62, ptr %4, align 8
  %63 = load ptr, ptr %4, align 8
  %64 = getelementptr inbounds nuw %struct.FuncCallContext, ptr %63, i32 0, i32 4
  %65 = load ptr, ptr %64, align 8
  %66 = call ptr @MemoryContextSwitchTo(ptr noundef %65)
  store ptr %66, ptr %7, align 8
  %67 = call ptr @palloc(i64 noundef 12)
  store ptr %67, ptr %5, align 8
  %68 = load i32, ptr %8, align 4
  %69 = load ptr, ptr %5, align 8
  %70 = getelementptr inbounds nuw %struct.generate_series_fctx, ptr %69, i32 0, i32 0
  store i32 %68, ptr %70, align 4
  %71 = load i32, ptr %9, align 4
  %72 = load ptr, ptr %5, align 8
  %73 = getelementptr inbounds nuw %struct.generate_series_fctx, ptr %72, i32 0, i32 1
  store i32 %71, ptr %73, align 4
  %74 = load i32, ptr %10, align 4
  %75 = load ptr, ptr %5, align 8
  %76 = getelementptr inbounds nuw %struct.generate_series_fctx, ptr %75, i32 0, i32 2
  store i32 %74, ptr %76, align 4
  %77 = load ptr, ptr %5, align 8
  %78 = load ptr, ptr %4, align 8
  %79 = getelementptr inbounds nuw %struct.FuncCallContext, ptr %78, i32 0, i32 2
  store ptr %77, ptr %79, align 8
  %80 = load ptr, ptr %7, align 8
  %81 = call ptr @MemoryContextSwitchTo(ptr noundef %80)
  call void @llvm.lifetime.end.p0(i64 4, ptr %10) #10
  call void @llvm.lifetime.end.p0(i64 4, ptr %9) #10
  call void @llvm.lifetime.end.p0(i64 4, ptr %8) #10
  br label %82

82:                                               ; preds = %60, %1
  %83 = load ptr, ptr %3, align 8
  %84 = call ptr @per_MultiFuncCall(ptr noundef %83)
  store ptr %84, ptr %4, align 8
  %85 = load ptr, ptr %4, align 8
  %86 = getelementptr inbounds nuw %struct.FuncCallContext, ptr %85, i32 0, i32 2
  %87 = load ptr, ptr %86, align 8
  store ptr %87, ptr %5, align 8
  %88 = load ptr, ptr %5, align 8
  %89 = getelementptr inbounds nuw %struct.generate_series_fctx, ptr %88, i32 0, i32 0
  %90 = load i32, ptr %89, align 4
  store i32 %90, ptr %6, align 4
  %91 = load ptr, ptr %5, align 8
  %92 = getelementptr inbounds nuw %struct.generate_series_fctx, ptr %91, i32 0, i32 2
  %93 = load i32, ptr %92, align 4
  %94 = icmp sgt i32 %93, 0
  br i1 %94, label %95, label %103

95:                                               ; preds = %82
  %96 = load ptr, ptr %5, align 8
  %97 = getelementptr inbounds nuw %struct.generate_series_fctx, ptr %96, i32 0, i32 0
  %98 = load i32, ptr %97, align 4
  %99 = load ptr, ptr %5, align 8
  %100 = getelementptr inbounds nuw %struct.generate_series_fctx, ptr %99, i32 0, i32 1
  %101 = load i32, ptr %100, align 4
  %102 = icmp sle i32 %98, %101
  br i1 %102, label %116, label %103

103:                                              ; preds = %95, %82
  %104 = load ptr, ptr %5, align 8
  %105 = getelementptr inbounds nuw %struct.generate_series_fctx, ptr %104, i32 0, i32 2
  %106 = load i32, ptr %105, align 4
  %107 = icmp slt i32 %106, 0
  br i1 %107, label %108, label %144

108:                                              ; preds = %103
  %109 = load ptr, ptr %5, align 8
  %110 = getelementptr inbounds nuw %struct.generate_series_fctx, ptr %109, i32 0, i32 0
  %111 = load i32, ptr %110, align 4
  %112 = load ptr, ptr %5, align 8
  %113 = getelementptr inbounds nuw %struct.generate_series_fctx, ptr %112, i32 0, i32 1
  %114 = load i32, ptr %113, align 4
  %115 = icmp sge i32 %111, %114
  br i1 %115, label %116, label %144

116:                                              ; preds = %108, %95
  %117 = load ptr, ptr %5, align 8
  %118 = getelementptr inbounds nuw %struct.generate_series_fctx, ptr %117, i32 0, i32 0
  %119 = load i32, ptr %118, align 4
  %120 = load ptr, ptr %5, align 8
  %121 = getelementptr inbounds nuw %struct.generate_series_fctx, ptr %120, i32 0, i32 2
  %122 = load i32, ptr %121, align 4
  %123 = load ptr, ptr %5, align 8
  %124 = getelementptr inbounds nuw %struct.generate_series_fctx, ptr %123, i32 0, i32 0
  %125 = call zeroext i1 @pg_add_s32_overflow(i32 noundef %119, i32 noundef %122, ptr noundef %124)
  br i1 %125, label %126, label %129

126:                                              ; preds = %116
  %127 = load ptr, ptr %5, align 8
  %128 = getelementptr inbounds nuw %struct.generate_series_fctx, ptr %127, i32 0, i32 2
  store i32 0, ptr %128, align 4
  br label %129

129:                                              ; preds = %126, %116
  br label %130

130:                                              ; preds = %129
  call void @llvm.lifetime.start.p0(i64 8, ptr %11) #10
  %131 = load ptr, ptr %4, align 8
  %132 = getelementptr inbounds nuw %struct.FuncCallContext, ptr %131, i32 0, i32 0
  %133 = load i64, ptr %132, align 8
  %134 = add i64 %133, 1
  store i64 %134, ptr %132, align 8
  %135 = load ptr, ptr %3, align 8
  %136 = getelementptr inbounds nuw %struct.FunctionCallInfoBaseData, ptr %135, i32 0, i32 2
  %137 = load ptr, ptr %136, align 8
  store ptr %137, ptr %11, align 8
  %138 = load ptr, ptr %11, align 8
  %139 = getelementptr inbounds nuw %struct.ReturnSetInfo, ptr %138, i32 0, i32 5
  store i32 1, ptr %139, align 8
  %140 = load i32, ptr %6, align 4
  %141 = call i64 @Int32GetDatum(i32 noundef %140)
  store i64 %141, ptr %2, align 8
  store i32 1, ptr %12, align 4
  call void @llvm.lifetime.end.p0(i64 8, ptr %11) #10
  br label %164

142:                                              ; No predecessors!
  br label %143

143:                                              ; preds = %142
  br label %163

144:                                              ; preds = %108, %103
  br label %145

145:                                              ; preds = %144
  call void @llvm.lifetime.start.p0(i64 8, ptr %13) #10
  %146 = load ptr, ptr %3, align 8
  %147 = load ptr, ptr %4, align 8
  call void @end_MultiFuncCall(ptr noundef %146, ptr noundef %147)
  %148 = load ptr, ptr %3, align 8
  %149 = getelementptr inbounds nuw %struct.FunctionCallInfoBaseData, ptr %148, i32 0, i32 2
  %150 = load ptr, ptr %149, align 8
  store ptr %150, ptr %13, align 8
  %151 = load ptr, ptr %13, align 8
  %152 = getelementptr inbounds nuw %struct.ReturnSetInfo, ptr %151, i32 0, i32 5
  store i32 2, ptr %152, align 8
  br label %153

153:                                              ; preds = %145
  %154 = load ptr, ptr %3, align 8
  %155 = getelementptr inbounds nuw %struct.FunctionCallInfoBaseData, ptr %154, i32 0, i32 4
  store i8 1, ptr %155, align 4
  store i64 0, ptr %2, align 8
  store i32 1, ptr %12, align 4
  br label %158

156:                                              ; No predecessors!
  br label %157

157:                                              ; preds = %156
  store i32 0, ptr %12, align 4
  br label %158

158:                                              ; preds = %157, %153
  call void @llvm.lifetime.end.p0(i64 8, ptr %13) #10
  %159 = load i32, ptr %12, align 4
  switch i32 %159, label %164 [
    i32 0, label %160
  ]

160:                                              ; preds = %158
  br label %161

161:                                              ; preds = %160
  br label %162

162:                                              ; preds = %161
  br label %163

163:                                              ; preds = %162, %143
  store i32 0, ptr %12, align 4
  br label %164

164:                                              ; preds = %163, %158, %130
  call void @llvm.lifetime.end.p0(i64 8, ptr %7) #10
  call void @llvm.lifetime.end.p0(i64 4, ptr %6) #10
  call void @llvm.lifetime.end.p0(i64 8, ptr %5) #10
  call void @llvm.lifetime.end.p0(i64 8, ptr %4) #10
  %165 = load i32, ptr %12, align 4
  switch i32 %165, label %168 [
    i32 0, label %166
    i32 1, label %166
  ]

166:                                              ; preds = %164, %164
  %167 = load i64, ptr %2, align 8
  ret i64 %167

168:                                              ; preds = %164
  unreachable
}