; Function Attrs: nounwind uwtable
define dso_local range(i64 -2147483648, 2147483648) i64 @generate_series_step_int4(ptr noundef %0) local_unnamed_addr #0 {
  %2 = load ptr, ptr %0, align 8
  %3 = getelementptr inbounds nuw i8, ptr %2, i64 24
  %4 = load ptr, ptr %3, align 8
  %5 = icmp eq ptr %4, null
  br i1 %5, label %6, label %33

6:                                                ; preds = %1
  %7 = getelementptr inbounds nuw i8, ptr %0, i64 32
  %8 = load i64, ptr %7, align 8
  %9 = trunc i64 %8 to i32
  %10 = getelementptr inbounds nuw i8, ptr %0, i64 48
  %11 = load i64, ptr %10, align 8
  %12 = trunc i64 %11 to i32
  %13 = getelementptr inbounds nuw i8, ptr %0, i64 30
  %14 = load i16, ptr %13, align 2
  %15 = icmp eq i16 %14, 3
  br i1 %15, label %16, label %.thread

16:                                               ; preds = %6
  %17 = getelementptr inbounds nuw i8, ptr %0, i64 64
  %18 = load i64, ptr %17, align 8
  %19 = trunc i64 %18 to i32
  %20 = icmp eq i32 %19, 0
  br i1 %20, label %21, label %.thread

21:                                               ; preds = %16
  %22 = tail call zeroext i1 @errstart_cold(i32 noundef 21, ptr noundef null) #15
  tail call void @llvm.assume(i1 %22)
  %23 = tail call i32 @errcode(i32 noundef 50856066) #13
  %24 = tail call i32 (ptr, ...) @errmsg(ptr noundef nonnull @.str.9) #13
  tail call void @errfinish(ptr noundef nonnull @.str.2, i32 noundef 1529, ptr noundef nonnull @__func__.generate_series_step_int4) #13
  unreachable

.thread:                                          ; preds = %6, %16
  %.04043 = phi i32 [ %19, %16 ], [ 1, %6 ]
  %25 = tail call ptr @init_MultiFuncCall(ptr noundef nonnull %0) #13
  %26 = getelementptr inbounds nuw i8, ptr %25, i64 32
  %27 = load ptr, ptr %26, align 8
  %28 = load ptr, ptr @CurrentMemoryContext, align 8
  store ptr %27, ptr @CurrentMemoryContext, align 8
  %29 = tail call ptr @palloc(i64 noundef 12) #13
  store i32 %9, ptr %29, align 4
  %30 = getelementptr inbounds nuw i8, ptr %29, i64 4
  store i32 %12, ptr %30, align 4
  %31 = getelementptr inbounds nuw i8, ptr %29, i64 8
  store i32 %.04043, ptr %31, align 4
  %32 = getelementptr inbounds nuw i8, ptr %25, i64 16
  store ptr %29, ptr %32, align 8
  store ptr %28, ptr @CurrentMemoryContext, align 8
  br label %33

33:                                               ; preds = %.thread, %1
  %34 = tail call ptr @per_MultiFuncCall(ptr noundef nonnull %0) #13
  %35 = getelementptr inbounds nuw i8, ptr %34, i64 16
  %36 = load ptr, ptr %35, align 8
  %37 = load i32, ptr %36, align 4
  %38 = getelementptr inbounds nuw i8, ptr %36, i64 8
  %39 = load i32, ptr %38, align 4
  %40 = icmp sgt i32 %39, 0
  br i1 %40, label %41, label %44

41:                                               ; preds = %33
  %42 = getelementptr inbounds nuw i8, ptr %36, i64 4
  %43 = load i32, ptr %42, align 4
  %.not = icmp sgt i32 %37, %43
  br i1 %.not, label %.thread44, label %49

44:                                               ; preds = %33
  %45 = icmp slt i32 %39, 0
  br i1 %45, label %46, label %.thread44

46:                                               ; preds = %44
  %47 = getelementptr inbounds nuw i8, ptr %36, i64 4
  %48 = load i32, ptr %47, align 4
  %.not41 = icmp slt i32 %37, %48
  br i1 %.not41, label %.thread44, label %49

49:                                               ; preds = %46, %41
  %50 = tail call { i32, i1 } @llvm.sadd.with.overflow.i32(i32 %37, i32 %39)
  %51 = extractvalue { i32, i1 } %50, 1
  %52 = extractvalue { i32, i1 } %50, 0
  store i32 %52, ptr %36, align 4
  br i1 %51, label %53, label %54

53:                                               ; preds = %49
  store i32 0, ptr %38, align 4
  br label %54

54:                                               ; preds = %49, %53
  %55 = load i64, ptr %34, align 8
  %56 = add i64 %55, 1
  store i64 %56, ptr %34, align 8
  %57 = getelementptr inbounds nuw i8, ptr %0, i64 16
  %58 = load ptr, ptr %57, align 8
  %59 = getelementptr inbounds nuw i8, ptr %58, i64 32
  store i32 1, ptr %59, align 8
  %60 = sext i32 %37 to i64
  br label %65

.thread44:                                        ; preds = %41, %44, %46
  tail call void @end_MultiFuncCall(ptr noundef nonnull %0, ptr noundef nonnull %34) #13
  %61 = getelementptr inbounds nuw i8, ptr %0, i64 16
  %62 = load ptr, ptr %61, align 8
  %63 = getelementptr inbounds nuw i8, ptr %62, i64 32
  store i32 2, ptr %63, align 8
  %64 = getelementptr inbounds nuw i8, ptr %0, i64 28
  store i8 1, ptr %64, align 4
  br label %65

65:                                               ; preds = %.thread44, %54
  %.0 = phi i64 [ %60, %54 ], [ 0, %.thread44 ]
  ret i64 %.0
}